; Function Attrs: mustprogress nounwind uwtable
define hidden noundef zeroext i1 @_ZN31G1ConcurrentRefineThreadControl8activateEj(ptr noundef nonnull align 8 dereferenceable(24) %0, i32 noundef %1) local_unnamed_addr #0 align 2 {
  %3 = alloca ptr, align 8
  call void @llvm.lifetime.start.p0(i64 8, ptr nonnull %3)
  %4 = getelementptr inbounds i8, ptr %0, i64 8
  %5 = load i32, ptr %4, align 8
  %.not7.i = icmp ugt i32 %5, %1
  br i1 %.not7.i, label %.loopexit, label %.lr.ph.i

.lr.ph.i:                                         ; preds = %2
  %6 = load i8, ptr @InjectGCWorkerCreationFailure, align 1
  %7 = trunc i8 %6 to i1
  br i1 %7, label %.thread.i.i, label %.lr.ph14.i

8:                                                ; preds = %27
  %9 = load i8, ptr @InjectGCWorkerCreationFailure, align 1
  %10 = trunc i8 %9 to i1
  br i1 %10, label %.thread.i.i, label %.lr.ph14.i, !llvm.loop !8

.lr.ph14.i:                                       ; preds = %.lr.ph.i, %8
  %11 = phi i32 [ %29, %8 ], [ %5, %.lr.ph.i ]
  %12 = load ptr, ptr %0, align 8
  %13 = call noundef ptr @_ZN24G1ConcurrentRefineThread6createEP18G1ConcurrentRefinej(ptr noundef %12, i32 noundef %11) #17
  %14 = icmp eq ptr %13, null
  br i1 %14, label %.thread.i.i, label %15

15:                                               ; preds = %.lr.ph14.i
  %16 = getelementptr inbounds i8, ptr %13, i64 792
  %17 = load ptr, ptr %16, align 8
  %18 = icmp eq ptr %17, null
  br i1 %18, label %.thread.i.i, label %27

.thread.i.i:                                      ; preds = %15, %.lr.ph14.i, %8, %.lr.ph.i
  %.us-phi.i = phi i32 [ %5, %.lr.ph.i ], [ %29, %8 ], [ %11, %.lr.ph14.i ], [ %11, %15 ]
  %.us-phi10.i = phi i1 [ true, %.lr.ph.i ], [ true, %8 ], [ true, %.lr.ph14.i ], [ false, %15 ]
  %.us-phi11.i = phi ptr [ null, %.lr.ph.i ], [ null, %8 ], [ null, %.lr.ph14.i ], [ %13, %15 ]
  %19 = load volatile ptr, ptr getelementptr inbounds (i8, ptr @_ZN16LogTagSetMappingILN6LogTag4typeE49ELS1_0ELS1_0ELS1_0ELS1_0ELS1_0EE7_tagsetE, i64 72), align 8
  %.not.i.i = icmp eq ptr %19, null
  br i1 %.not.i.i, label %22, label %20

20:                                               ; preds = %.thread.i.i
  %21 = select i1 %.us-phi10.i, ptr @.str.4, ptr @.str.5
  call void (ptr, ...) @_ZN7LogImplILN6LogTag4typeE49ELS1_0ELS1_0ELS1_0ELS1_0ELS1_0EE5writeILN8LogLevel4typeE4EEEvPKcz(ptr noundef nonnull @.str, i32 noundef %.us-phi.i, ptr noundef nonnull %21)
  br label %22

22:                                               ; preds = %20, %.thread.i.i
  br i1 %.us-phi10.i, label %_ZN31G1ConcurrentRefineThreadControl22ensure_threads_createdEjb.exit, label %23

23:                                               ; preds = %22
  %24 = load ptr, ptr %.us-phi11.i, align 8
  %25 = getelementptr inbounds i8, ptr %24, i64 16
  %26 = load ptr, ptr %25, align 8
  call void %26(ptr noundef nonnull align 8 dereferenceable(1104) %.us-phi11.i) #17
  br label %_ZN31G1ConcurrentRefineThreadControl22ensure_threads_createdEjb.exit

27:                                               ; preds = %15
  store ptr %13, ptr %3, align 8
  %28 = call noundef i32 @_ZN26GrowableArrayWithAllocatorIP24G1ConcurrentRefineThread18GrowableArrayCHeapIS1_L8MEMFLAGS5EEE6appendERKS1_(ptr noundef nonnull align 8 dereferenceable(16) %4, ptr noundef nonnull align 8 dereferenceable(8) %3)
  %29 = load i32, ptr %4, align 8
  %.not.i = icmp ugt i32 %29, %1
  br i1 %.not.i, label %.loopexit, label %8, !llvm.loop !8

_ZN31G1ConcurrentRefineThreadControl22ensure_threads_createdEjb.exit: ; preds = %22, %23
  call void @llvm.lifetime.end.p0(i64 8, ptr nonnull %3)
  br label %35

.loopexit:                                        ; preds = %27, %2
  call void @llvm.lifetime.end.p0(i64 8, ptr nonnull %3)
  %30 = getelementptr inbounds i8, ptr %0, i64 16
  %31 = load ptr, ptr %30, align 8
  %32 = sext i32 %1 to i64
  %33 = getelementptr inbounds ptr, ptr %31, i64 %32
  %34 = load ptr, ptr %33, align 8
  call void @_ZN24G1ConcurrentRefineThread8activateEv(ptr noundef nonnull align 8 dereferenceable(1104) %34) #17
  br label %35

35:                                               ; preds = %_ZN31G1ConcurrentRefineThreadControl22ensure_threads_createdEjb.exit, %.loopexit
  %.not5.i4 = phi i1 [ false, %_ZN31G1ConcurrentRefineThreadControl22ensure_threads_createdEjb.exit ], [ true, %.loopexit ]
  ret i1 %.not5.i4
}